Certificate:
    Data:
        Version: 3 (0x2)
        Serial Number: 1 (0x1)
    Signature Algorithm: sha1WithRSAEncryption
        Issuer: C=US, ST=Colorado, L=Boulder, O=CU Boulder, OU=CSCI5273, CN=Yisha/emailAddress=yiwu1678@colorado.edu
        Validity
            Not Before: Nov 28 00:08:17 2013 GMT
            Not After : Nov 28 00:08:17 2014 GMT
        Subject: C=US, ST=Colorado, O=CU Boulder, OU=CSCI5273, CN=Yisha/emailAddress=yiwu1678@colorado.edu
        Subject Public Key Info:
            Public Key Algorithm: rsaEncryption
                Public-Key: (1024 bit)
                Modulus:
                    00:b7:22:48:25:b0:23:5a:b6:79:a5:ac:49:81:28:
                    b2:95:58:7c:7d:02:d1:c9:37:7c:43:6a:43:ff:f0:
                    3f:0b:0f:b9:0a:bb:10:ae:74:23:3d:b9:53:4b:a8:
                    e3:4e:8f:39:d3:34:ab:07:24:98:95:66:8c:44:21:
                    f8:0b:6d:98:bc:ed:9d:e7:6f:f1:2a:35:f7:25:2a:
                    6d:30:0d:7f:9b:ab:fd:0a:b1:ec:12:94:2b:95:0c:
                    96:8b:48:85:12:14:50:4e:41:84:e8:cf:f9:27:c7:
                    5a:b8:04:1a:43:af:4b:54:b5:1f:4c:04:11:dd:84:
                    6a:6c:22:c5:6d:7c:cd:67:bf
                Exponent: 65537 (0x10001)
        X509v3 extensions:
            X509v3 Basic Constraints: 
                CA:FALSE
            Netscape Comment: 
                OpenSSL Generated Certificate
            X509v3 Subject Key Identifier: 
                DE:D4:61:F7:CD:F0:30:19:F4:6E:EB:D7:76:DE:DF:E6:DE:EF:8E:46
            X509v3 Authority Key Identifier: 
                keyid:A5:1A:AB:8C:58:8D:28:3E:C4:47:C3:39:E7:23:29:05:32:50:53:ED

    Signature Algorithm: sha1WithRSAEncryption
         45:d9:e3:cc:b3:a6:ea:5d:e5:9c:23:00:f3:e6:37:59:0d:b3:
         bf:56:f1:82:14:66:87:79:89:24:7d:df:dd:99:de:1a:b3:20:
         6b:63:23:6a:eb:00:d4:71:48:99:bb:9d:0e:a6:25:aa:5d:b0:
         53:3e:9a:d0:0a:5a:a8:c5:23:68:2c:a0:a9:5e:76:7e:00:91:
         46:19:af:62:26:ff:c2:43:1f:3d:b1:e7:1c:21:df:ff:4f:f8:
         1e:0c:8d:2e:50:70:e3:f2:70:6a:a9:54:58:ab:44:20:62:a7:
         88:c1:9d:58:de:f4:61:2a:2a:55:dc:8d:f4:4a:6b:97:a6:22:
         e7:34
-----BEGIN CERTIFICATE-----
MIIDADCCAmmgAwIBAgIBATANBgkqhkiG9w0BAQUFADCBkDELMAkGA1UEBhMCVVMx
ETAPBgNVBAgMCENvbG9yYWRvMRAwDgYDVQQHDAdCb3VsZGVyMRMwEQYDVQQKDApD
VSBCb3VsZGVyMREwDwYDVQQLDAhDU0NJNTI3MzEOMAwGA1UEAwwFWWlzaGExJDAi
BgkqhkiG9w0BCQEWFXlpd3UxNjc4QGNvbG9yYWRvLmVkdTAeFw0xMzExMjgwMDA4
MTdaFw0xNDExMjgwMDA4MTdaMH4xCzAJBgNVBAYTAlVTMREwDwYDVQQIDAhDb2xv
cmFkbzETMBEGA1UECgwKQ1UgQm91bGRlcjERMA8GA1UECwwIQ1NDSTUyNzMxDjAM
BgNVBAMMBVlpc2hhMSQwIgYJKoZIhvcNAQkBFhV5aXd1MTY3OEBjb2xvcmFkby5l
ZHUwgZ8wDQYJKoZIhvcNAQEBBQADgY0AMIGJAoGBALciSCWwI1q2eaWsSYEospVY
fH0C0ck3fENqQ//wPwsPuQq7EK50Iz25U0uo406POdM0qwckmJVmjEQh+AttmLzt
nedv8So19yUqbTANf5ur/Qqx7BKUK5UMlotIhRIUUE5BhOjP+SfHWrgEGkOvS1S1
H0wEEd2EamwixW18zWe/AgMBAAGjezB5MAkGA1UdEwQCMAAwLAYJYIZIAYb4QgEN
BB8WHU9wZW5TU0wgR2VuZXJhdGVkIENlcnRpZmljYXRlMB0GA1UdDgQWBBTe1GH3
zfAwGfRu69d23t/m3u+ORjAfBgNVHSMEGDAWgBSlGquMWI0oPsRHwznnIykFMlBT
7TANBgkqhkiG9w0BAQUFAAOBgQBF2ePMs6bqXeWcIwDz5jdZDbO/VvGCFGaHeYkk
fd/dmd4asyBrYyNq6wDUcUiZu50OpiWqXbBTPprQClqoxSNoLKCpXnZ+AJFGGa9i
Jv/CQx89seccId//T/geDI0uUHDj8nBqqVRYq0QgYqeIwZ1Y3vRhKipV3I30SmuX
piLnNA==
-----END CERTIFICATE-----
