Certificate:
    Data:
        Version: 3 (0x2)
        Serial Number: 2 (0x2)
    Signature Algorithm: sha1WithRSAEncryption
        Issuer: C=US, ST=Colorado, L=Boulder, O=CU Boulder, OU=CSCI5273, CN=Yisha/emailAddress=yiwu1678@colorado.edu
        Validity
            Not Before: Nov 28 01:50:32 2013 GMT
            Not After : Nov 28 01:50:32 2014 GMT
        Subject: C=US, ST=Colorado, O=CU Boulder, OU=CSCI5273, CN=Yisha/emailAddress=yiwu1678@colorado.edu
        Subject Public Key Info:
            Public Key Algorithm: rsaEncryption
                Public-Key: (1024 bit)
                Modulus:
                    00:cd:a6:04:96:15:92:63:82:3f:4d:f9:78:15:95:
                    53:4a:85:11:7e:e2:23:02:e1:fb:5e:5b:49:8d:42:
                    27:90:19:26:02:9a:d1:62:06:6b:04:fa:dd:91:ea:
                    2a:b1:26:88:cc:74:da:90:d3:84:cd:21:cc:28:0d:
                    6c:04:14:f1:b2:7c:f7:46:e2:6e:57:8e:3a:e0:2b:
                    3c:4f:e4:53:df:04:94:a7:52:e5:14:ae:fb:44:58:
                    27:13:53:42:06:a1:b5:6a:e8:e5:80:45:8a:99:bd:
                    bc:3b:c6:d3:93:1d:32:2d:0c:6e:9d:8f:0c:01:68:
                    5d:25:84:e4:7e:c2:f8:7b:bd
                Exponent: 65537 (0x10001)
        X509v3 extensions:
            X509v3 Basic Constraints: 
                CA:FALSE
            Netscape Comment: 
                OpenSSL Generated Certificate
            X509v3 Subject Key Identifier: 
                4A:A2:F2:94:D1:A1:55:28:9C:4E:67:74:5B:5D:03:53:99:B9:D5:CA
            X509v3 Authority Key Identifier: 
                keyid:A5:1A:AB:8C:58:8D:28:3E:C4:47:C3:39:E7:23:29:05:32:50:53:ED

    Signature Algorithm: sha1WithRSAEncryption
         6b:39:16:e5:42:d8:37:10:2e:20:8e:53:e5:54:f5:9b:e8:a6:
         9a:07:0a:f9:d5:88:43:49:84:01:ba:51:b8:26:18:c2:27:af:
         4f:c0:8d:2b:77:1c:9f:c7:7c:56:0b:fa:68:1b:5a:86:54:a7:
         63:73:9c:7b:23:cf:b7:28:60:69:8c:64:66:05:b3:e2:53:04:
         6f:55:86:6d:5c:67:f1:b9:2d:70:9d:67:f1:fb:b3:ed:ce:2a:
         de:ce:dc:78:b0:96:16:ff:34:3c:d7:8e:f3:c7:ac:6f:e3:29:
         5a:cf:d2:4f:64:20:69:25:08:53:11:c6:96:a5:ec:9a:59:e2:
         ed:3d
-----BEGIN CERTIFICATE-----
MIIDADCCAmmgAwIBAgIBAjANBgkqhkiG9w0BAQUFADCBkDELMAkGA1UEBhMCVVMx
ETAPBgNVBAgMCENvbG9yYWRvMRAwDgYDVQQHDAdCb3VsZGVyMRMwEQYDVQQKDApD
VSBCb3VsZGVyMREwDwYDVQQLDAhDU0NJNTI3MzEOMAwGA1UEAwwFWWlzaGExJDAi
BgkqhkiG9w0BCQEWFXlpd3UxNjc4QGNvbG9yYWRvLmVkdTAeFw0xMzExMjgwMTUw
MzJaFw0xNDExMjgwMTUwMzJaMH4xCzAJBgNVBAYTAlVTMREwDwYDVQQIDAhDb2xv
cmFkbzETMBEGA1UECgwKQ1UgQm91bGRlcjERMA8GA1UECwwIQ1NDSTUyNzMxDjAM
BgNVBAMMBVlpc2hhMSQwIgYJKoZIhvcNAQkBFhV5aXd1MTY3OEBjb2xvcmFkby5l
ZHUwgZ8wDQYJKoZIhvcNAQEBBQADgY0AMIGJAoGBAM2mBJYVkmOCP035eBWVU0qF
EX7iIwLh+15bSY1CJ5AZJgKa0WIGawT63ZHqKrEmiMx02pDThM0hzCgNbAQU8bJ8
90bibleOOuArPE/kU98ElKdS5RSu+0RYJxNTQgahtWro5YBFipm9vDvG05MdMi0M
bp2PDAFoXSWE5H7C+Hu9AgMBAAGjezB5MAkGA1UdEwQCMAAwLAYJYIZIAYb4QgEN
BB8WHU9wZW5TU0wgR2VuZXJhdGVkIENlcnRpZmljYXRlMB0GA1UdDgQWBBRKovKU
0aFVKJxOZ3RbXQNTmbnVyjAfBgNVHSMEGDAWgBSlGquMWI0oPsRHwznnIykFMlBT
7TANBgkqhkiG9w0BAQUFAAOBgQBrORblQtg3EC4gjlPlVPWb6KaaBwr51YhDSYQB
ulG4JhjCJ69PwI0rdxyfx3xWC/poG1qGVKdjc5x7I8+3KGBpjGRmBbPiUwRvVYZt
XGfxuS1wnWfx+7Ptzireztx4sJYW/zQ8147zx6xv4ylaz9JPZCBpJQhTEcaWpeya
WeLtPQ==
-----END CERTIFICATE-----
